target datalayout = "e-m:e-p270:32:32-p271:32:32-p272:64:64-i64:64-i128:128-f80:128-n8:16:32:64-S128"
target triple = "x86_64-pc-linux-gnu"

%struct._object = type { %union.anon.41, ptr }
%union.anon.41 = type { i64 }
%struct.PyASCIIObject = type { %struct._object, i64, i64, %struct.anon.46 }
%struct.anon.46 = type { i16, i16 }
%struct.PyCompactUnicodeObject = type { %struct.PyASCIIObject, i64, ptr }
%struct.PyUnicodeObject = type { %struct.PyCompactUnicodeObject, %union.anon.806 }
%union.anon.806 = type { ptr }

; Function Attrs: inlinehint nounwind uwtable
define internal i32 @PyUnicode_IS_ASCII(ptr noundef %0) #2 {
  %2 = alloca ptr, align 8
  store ptr %0, ptr %2, align 8, !tbaa !4
  %3 = load ptr, ptr %2, align 8, !tbaa !4
  %4 = getelementptr inbounds nuw %struct.PyASCIIObject, ptr %3, i32 0, i32 3
  %5 = getelementptr inbounds nuw %struct.anon.46, ptr %4, i32 0, i32 1
  %6 = load i16, ptr %5, align 2
  %7 = lshr i16 %6, 4
  %8 = and i16 %7, 1
  %9 = zext i16 %8 to i32
  ret i32 %9
}

; Function Attrs: inlinehint nounwind uwtable
define internal ptr @_PyUnicode_NONCOMPACT_DATA(ptr noundef %0) #2 {
  %2 = alloca ptr, align 8
  %3 = alloca ptr, align 8
  store ptr %0, ptr %2, align 8, !tbaa !4
  call void @llvm.lifetime.start.p0(i64 8, ptr %3) #12
  %4 = load ptr, ptr %2, align 8, !tbaa !4
  %5 = getelementptr inbounds nuw %struct.PyUnicodeObject, ptr %4, i32 0, i32 1
  %6 = load ptr, ptr %5, align 8, !tbaa !191
  store ptr %6, ptr %3, align 8, !tbaa !180
  %7 = load ptr, ptr %3, align 8, !tbaa !180
  call void @llvm.lifetime.end.p0(i64 8, ptr %3) #12
  ret ptr %7
}

; Function Attrs: inlinehint nounwind uwtable
define internal ptr @_PyUnicode_COMPACT_DATA(ptr noundef %0) #2 {
  %2 = alloca ptr, align 8
  %3 = alloca ptr, align 8
  store ptr %0, ptr %3, align 8, !tbaa !4
  %4 = load ptr, ptr %3, align 8, !tbaa !4
  %5 = call i32 @PyUnicode_IS_ASCII(ptr noundef %4)
  %6 = icmp ne i32 %5, 0
  br i1 %6, label %7, label %10

7:                                                ; preds = %1
  %8 = load ptr, ptr %3, align 8, !tbaa !4
  %9 = getelementptr %struct.PyASCIIObject, ptr %8, i64 1
  store ptr %9, ptr %2, align 8
  br label %13

10:                                               ; preds = %1
  %11 = load ptr, ptr %3, align 8, !tbaa !4
  %12 = getelementptr %struct.PyCompactUnicodeObject, ptr %11, i64 1
  store ptr %12, ptr %2, align 8
  br label %13

13:                                               ; preds = %10, %7
  %14 = load ptr, ptr %2, align 8
  ret ptr %14
}

; Function Attrs: inlinehint nounwind uwtable
define internal i32 @PyUnicode_IS_COMPACT(ptr noundef %0) #2 {
  %2 = alloca ptr, align 8
  store ptr %0, ptr %2, align 8, !tbaa !4
  %3 = load ptr, ptr %2, align 8, !tbaa !4
  %4 = getelementptr inbounds nuw %struct.PyASCIIObject, ptr %3, i32 0, i32 3
  %5 = getelementptr inbounds nuw %struct.anon.46, ptr %4, i32 0, i32 1
  %6 = load i16, ptr %5, align 2
  %7 = lshr i16 %6, 3
  %8 = and i16 %7, 1
  %9 = zext i16 %8 to i32
  ret i32 %9
}

; Function Attrs: inlinehint nounwind uwtable
define internal void @PyUnicode_SET_HASH(ptr noundef %0, i64 noundef %1) #2 {
  %3 = alloca ptr, align 8
  %4 = alloca i64, align 8
  store ptr %0, ptr %3, align 8, !tbaa !4
  store i64 %1, ptr %4, align 8, !tbaa !185
  %5 = load i64, ptr %4, align 8, !tbaa !185
  %6 = load ptr, ptr %3, align 8, !tbaa !4
  %7 = getelementptr inbounds nuw %struct.PyASCIIObject, ptr %6, i32 0, i32 2
  store i64 %5, ptr %7, align 8, !tbaa !205
  ret void
}

; Function Attrs: inlinehint nounwind uwtable
define internal i64 @PyUnicode_GET_LENGTH(ptr noundef %0) #2 {
  %2 = alloca ptr, align 8
  store ptr %0, ptr %2, align 8, !tbaa !4
  %3 = load ptr, ptr %2, align 8, !tbaa !4
  %4 = getelementptr inbounds nuw %struct.PyASCIIObject, ptr %3, i32 0, i32 1
  %5 = load i64, ptr %4, align 8, !tbaa !194
  ret i64 %5
}

; Function Attrs: inlinehint nounwind uwtable
define internal ptr @_PyUnicode_DATA(ptr noundef %0) #2 {
  %2 = alloca ptr, align 8
  %3 = alloca ptr, align 8
  store ptr %0, ptr %3, align 8, !tbaa !4
  %4 = load ptr, ptr %3, align 8, !tbaa !4
  %5 = call i32 @PyUnicode_IS_COMPACT(ptr noundef %4)
  %6 = icmp ne i32 %5, 0
  br i1 %6, label %7, label %10

7:                                                ; preds = %1
  %8 = load ptr, ptr %3, align 8, !tbaa !4
  %9 = call ptr @_PyUnicode_COMPACT_DATA(ptr noundef %8)
  store ptr %9, ptr %2, align 8
  br label %13

10:                                               ; preds = %1
  %11 = load ptr, ptr %3, align 8, !tbaa !4
  %12 = call ptr @_PyUnicode_NONCOMPACT_DATA(ptr noundef %11)
  store ptr %12, ptr %2, align 8
  br label %13

13:                                               ; preds = %10, %7
  %14 = load ptr, ptr %2, align 8
  ret ptr %14
}

; Function Attrs: inlinehint nounwind uwtable
define internal i64 @PyUnicode_HASH(ptr noundef %0) #2 {
  %2 = alloca ptr, align 8
  store ptr %0, ptr %2, align 8, !tbaa !4
  %3 = load ptr, ptr %2, align 8, !tbaa !4
  %4 = getelementptr inbounds nuw %struct.PyASCIIObject, ptr %3, i32 0, i32 2
  %5 = load i64, ptr %4, align 8, !tbaa !205
  ret i64 %5
}

; Function Attrs: nounwind uwtable
define internal i64 @unicode_hash(ptr noundef %0) #0 {
  %2 = alloca i64, align 8
  %3 = alloca ptr, align 8
  %4 = alloca i64, align 8
  %5 = alloca i64, align 8
  %6 = alloca i32, align 4
  store ptr %0, ptr %3, align 8, !tbaa !4
  call void @llvm.lifetime.start.p0(i64 8, ptr %4) #12
  call void @llvm.lifetime.start.p0(i64 8, ptr %5) #12
  %7 = load ptr, ptr %3, align 8, !tbaa !4
  %8 = call i64 @PyUnicode_HASH(ptr noundef %7)
  store i64 %8, ptr %5, align 8, !tbaa !185
  %9 = load i64, ptr %5, align 8, !tbaa !185
  %10 = icmp ne i64 %9, -1
  br i1 %10, label %11, label %13

11:                                               ; preds = %1
  %12 = load i64, ptr %5, align 8, !tbaa !185
  store i64 %12, ptr %2, align 8
  store i32 1, ptr %6, align 4
  br label %29

13:                                               ; preds = %1
  %14 = load ptr, ptr %3, align 8, !tbaa !4
  %15 = call ptr @_PyUnicode_DATA(ptr noundef %14)
  %16 = load ptr, ptr %3, align 8, !tbaa !4
  %17 = call i64 @PyUnicode_GET_LENGTH(ptr noundef %16)
  %18 = load ptr, ptr %3, align 8, !tbaa !4
  %19 = getelementptr inbounds nuw %struct.PyASCIIObject, ptr %18, i32 0, i32 3
  %20 = getelementptr inbounds nuw %struct.anon.46, ptr %19, i32 0, i32 1
  %21 = load i16, ptr %20, align 2
  %22 = and i16 %21, 7
  %23 = zext i16 %22 to i64
  %24 = mul i64 %17, %23
  %25 = call i64 @Py_HashBuffer(ptr noundef %15, i64 noundef %24)
  store i64 %25, ptr %4, align 8, !tbaa !185
  %26 = load ptr, ptr %3, align 8, !tbaa !4
  %27 = load i64, ptr %4, align 8, !tbaa !185
  call void @PyUnicode_SET_HASH(ptr noundef %26, i64 noundef %27)
  %28 = load i64, ptr %4, align 8, !tbaa !185
  store i64 %28, ptr %2, align 8
  store i32 1, ptr %6, align 4
  br label %29

29:                                               ; preds = %13, %11
  call void @llvm.lifetime.end.p0(i64 8, ptr %5) #12
  call void @llvm.lifetime.end.p0(i64 8, ptr %4) #12
  %30 = load i64, ptr %2, align 8
  ret i64 %30
}