; Function Attrs: nounwind uwtable
define internal i64 @unicode_hash(ptr noundef %0) #0 {
  %2 = getelementptr i8, ptr %0, i64 24
  %.val10 = load i64, ptr %2, align 8, !tbaa !201
  %.not = icmp eq i64 %.val10, -1
  br i1 %.not, label %3, label %15

3:                                                ; preds = %1
  %4 = getelementptr i8, ptr %0, i64 34
  %.val.i = load i16, ptr %4, align 2
  %5 = and i16 %.val.i, 8
  %.not.i = icmp eq i16 %5, 0
  br i1 %.not.i, label %8, label %6

6:                                                ; preds = %3
  %7 = and i16 %.val.i, 16
  %.not.i.i = icmp eq i16 %7, 0
  %.0.v.i.i = select i1 %.not.i.i, i64 56, i64 40
  %.0.i.i = getelementptr i8, ptr %0, i64 %.0.v.i.i
  br label %_PyUnicode_DATA.exit

8:                                                ; preds = %3
  %9 = getelementptr i8, ptr %0, i64 56
  %.val4.i = load ptr, ptr %9, align 8, !tbaa !195
  br label %_PyUnicode_DATA.exit

_PyUnicode_DATA.exit:                             ; preds = %6, %8
  %.0.i = phi ptr [ %.0.i.i, %6 ], [ %.val4.i, %8 ]
  %10 = getelementptr i8, ptr %0, i64 16
  %.val = load i64, ptr %10, align 8, !tbaa !197
  %11 = and i16 %.val.i, 7
  %12 = zext nneg i16 %11 to i64
  %13 = mul i64 %.val, %12
  %14 = tail call i64 @Py_HashBuffer(ptr noundef %.0.i, i64 noundef %13) #41
  store i64 %14, ptr %2, align 8, !tbaa !201
  br label %15

15:                                               ; preds = %1, %_PyUnicode_DATA.exit
  %.0 = phi i64 [ %14, %_PyUnicode_DATA.exit ], [ %.val10, %1 ]
  ret i64 %.0
}